target datalayout = "e-m:e-p270:32:32-p271:32:32-p272:64:64-i64:64-i128:128-f80:128-n8:16:32:64-S128"
target triple = "x86_64-pc-linux-gnu"

%struct.RVMapDesc = type { i8, i8, [256 x i8], [256 x i8] }
%struct.IVI45DecContext = type { %struct.GetBitContext, [9 x %struct.RVMapDesc], i32, i32, i32, i32, i32, ptr, i32, i32, i32, i8, i16, %struct.IVIPicConfig, [3 x %struct.IVIPlaneDesc], i32, i32, i32, i32, i32, %struct.IVIHuffTab, %struct.IVIHuffTab, i8, i8, i8, i8, i8, i16, i8, i32, i32, i8, i8, i8, i8, i8, ptr, ptr, ptr, ptr, ptr, i32, [4 x i32], i32, ptr, i32 }
%struct.GetBitContext = type { ptr, ptr, i32, i32, i32 }
%struct.IVIPicConfig = type { i16, i16, i16, i16, i16, i16, i8, i8 }
%struct.IVIPlaneDesc = type { i16, i16, i8, ptr }
%struct.IVIHuffTab = type { i32, ptr, %struct.IVIHuffDesc, %struct.VLC }
%struct.IVIHuffDesc = type { i32, [16 x i8] }
%struct.VLC = type { i32, ptr, i32, i32 }

; Function Attrs: nounwind uwtable
define internal void @switch_buffers(ptr noundef %0) #4 {
  %2 = alloca ptr, align 8
  %3 = alloca i32, align 4
  store ptr %0, ptr %2, align 8, !tbaa !29
  %4 = load ptr, ptr %2, align 8, !tbaa !29
  %5 = getelementptr inbounds nuw %struct.IVI45DecContext, ptr %4, i32 0, i32 4
  %6 = load i32, ptr %5, align 4, !tbaa !63
  switch i32 %6, label %52 [
    i32 0, label %7
    i32 1, label %7
    i32 2, label %23
    i32 3, label %52
  ]

7:                                                ; preds = %1, %1
  %8 = load ptr, ptr %2, align 8, !tbaa !29
  %9 = getelementptr inbounds nuw %struct.IVI45DecContext, ptr %8, i32 0, i32 15
  %10 = load i32, ptr %9, align 8, !tbaa !53
  %11 = xor i32 %10, 1
  store i32 %11, ptr %9, align 8, !tbaa !53
  %12 = load ptr, ptr %2, align 8, !tbaa !29
  %13 = getelementptr inbounds nuw %struct.IVI45DecContext, ptr %12, i32 0, i32 15
  %14 = load i32, ptr %13, align 8, !tbaa !53
  %15 = load ptr, ptr %2, align 8, !tbaa !29
  %16 = getelementptr inbounds nuw %struct.IVI45DecContext, ptr %15, i32 0, i32 16
  store i32 %14, ptr %16, align 4, !tbaa !120
  %17 = load ptr, ptr %2, align 8, !tbaa !29
  %18 = getelementptr inbounds nuw %struct.IVI45DecContext, ptr %17, i32 0, i32 15
  %19 = load i32, ptr %18, align 8, !tbaa !53
  %20 = xor i32 %19, 1
  %21 = load ptr, ptr %2, align 8, !tbaa !29
  %22 = getelementptr inbounds nuw %struct.IVI45DecContext, ptr %21, i32 0, i32 17
  store i32 %20, ptr %22, align 8, !tbaa !121
  br label %52

23:                                               ; preds = %1
  %24 = load ptr, ptr %2, align 8, !tbaa !29
  %25 = getelementptr inbounds nuw %struct.IVI45DecContext, ptr %24, i32 0, i32 8
  %26 = load i32, ptr %25, align 8, !tbaa !54
  %27 = icmp ne i32 %26, 0
  br i1 %27, label %33, label %28

28:                                               ; preds = %23
  %29 = load ptr, ptr %2, align 8, !tbaa !29
  %30 = getelementptr inbounds nuw %struct.IVI45DecContext, ptr %29, i32 0, i32 18
  store i32 2, ptr %30, align 4, !tbaa !122
  %31 = load ptr, ptr %2, align 8, !tbaa !29
  %32 = getelementptr inbounds nuw %struct.IVI45DecContext, ptr %31, i32 0, i32 8
  store i32 1, ptr %32, align 8, !tbaa !54
  br label %33

33:                                               ; preds = %28, %23
  br label %34

34:                                               ; preds = %33
  call void @llvm.lifetime.start.p0(i64 4, ptr %3) #8
  %35 = load ptr, ptr %2, align 8, !tbaa !29
  %36 = getelementptr inbounds nuw %struct.IVI45DecContext, ptr %35, i32 0, i32 18
  %37 = load i32, ptr %36, align 4, !tbaa !122
  store i32 %37, ptr %3, align 4, !tbaa !52
  %38 = load ptr, ptr %2, align 8, !tbaa !29
  %39 = getelementptr inbounds nuw %struct.IVI45DecContext, ptr %38, i32 0, i32 16
  %40 = load i32, ptr %39, align 4, !tbaa !120
  %41 = load ptr, ptr %2, align 8, !tbaa !29
  %42 = getelementptr inbounds nuw %struct.IVI45DecContext, ptr %41, i32 0, i32 18
  store i32 %40, ptr %42, align 4, !tbaa !122
  %43 = load i32, ptr %3, align 4, !tbaa !52
  %44 = load ptr, ptr %2, align 8, !tbaa !29
  %45 = getelementptr inbounds nuw %struct.IVI45DecContext, ptr %44, i32 0, i32 16
  store i32 %43, ptr %45, align 4, !tbaa !120
  call void @llvm.lifetime.end.p0(i64 4, ptr %3) #8
  br label %46

46:                                               ; preds = %34
  %47 = load ptr, ptr %2, align 8, !tbaa !29
  %48 = getelementptr inbounds nuw %struct.IVI45DecContext, ptr %47, i32 0, i32 18
  %49 = load i32, ptr %48, align 4, !tbaa !122
  %50 = load ptr, ptr %2, align 8, !tbaa !29
  %51 = getelementptr inbounds nuw %struct.IVI45DecContext, ptr %50, i32 0, i32 17
  store i32 %49, ptr %51, align 8, !tbaa !121
  br label %52

52:                                               ; preds = %1, %1, %46, %7
  %53 = load ptr, ptr %2, align 8, !tbaa !29
  %54 = getelementptr inbounds nuw %struct.IVI45DecContext, ptr %53, i32 0, i32 3
  %55 = load i32, ptr %54, align 8, !tbaa !62
  switch i32 %55, label %74 [
    i32 0, label %56
    i32 1, label %59
    i32 2, label %73
    i32 3, label %73
    i32 4, label %73
  ]

56:                                               ; preds = %52
  %57 = load ptr, ptr %2, align 8, !tbaa !29
  %58 = getelementptr inbounds nuw %struct.IVI45DecContext, ptr %57, i32 0, i32 15
  store i32 0, ptr %58, align 8, !tbaa !53
  br label %59

59:                                               ; preds = %52, %56
  %60 = load ptr, ptr %2, align 8, !tbaa !29
  %61 = getelementptr inbounds nuw %struct.IVI45DecContext, ptr %60, i32 0, i32 8
  store i32 0, ptr %61, align 8, !tbaa !54
  %62 = load ptr, ptr %2, align 8, !tbaa !29
  %63 = getelementptr inbounds nuw %struct.IVI45DecContext, ptr %62, i32 0, i32 15
  %64 = load i32, ptr %63, align 8, !tbaa !53
  %65 = load ptr, ptr %2, align 8, !tbaa !29
  %66 = getelementptr inbounds nuw %struct.IVI45DecContext, ptr %65, i32 0, i32 16
  store i32 %64, ptr %66, align 4, !tbaa !120
  %67 = load ptr, ptr %2, align 8, !tbaa !29
  %68 = getelementptr inbounds nuw %struct.IVI45DecContext, ptr %67, i32 0, i32 15
  %69 = load i32, ptr %68, align 8, !tbaa !53
  %70 = xor i32 %69, 1
  %71 = load ptr, ptr %2, align 8, !tbaa !29
  %72 = getelementptr inbounds nuw %struct.IVI45DecContext, ptr %71, i32 0, i32 17
  store i32 %70, ptr %72, align 8, !tbaa !121
  br label %74

73:                                               ; preds = %52, %52, %52
  br label %74

74:                                               ; preds = %52, %73, %59
  ret void
}