; Function Attrs: mustprogress nofree norecurse nosync nounwind willreturn memory(argmem: readwrite) uwtable
define internal void @switch_buffers(ptr noundef captures(none) %0) #5 {
  %2 = getelementptr inbounds nuw i8, ptr %0, i64 4668
  %3 = load i32, ptr %2, align 4, !tbaa !62
  switch i32 %3, label %19 [
    i32 0, label %4
    i32 1, label %4
    i32 2, label %9
  ]

4:                                                ; preds = %1, %1
  %5 = getelementptr inbounds nuw i8, ptr %0, i64 4768
  %6 = load i32, ptr %5, align 8, !tbaa !48
  %7 = xor i32 %6, 1
  store i32 %7, ptr %5, align 8, !tbaa !48
  %8 = getelementptr inbounds nuw i8, ptr %0, i64 4772
  store i32 %7, ptr %8, align 4, !tbaa !146
  br label %.sink.split

9:                                                ; preds = %1
  %10 = getelementptr inbounds nuw i8, ptr %0, i64 4688
  %11 = load i32, ptr %10, align 8, !tbaa !49
  %.not = icmp eq i32 %11, 0
  br i1 %.not, label %12, label %._crit_edge

._crit_edge:                                      ; preds = %9
  %.phi.trans.insert = getelementptr inbounds nuw i8, ptr %0, i64 4780
  %.pre = load i32, ptr %.phi.trans.insert, align 4, !tbaa !147
  br label %13

12:                                               ; preds = %9
  store i32 1, ptr %10, align 8, !tbaa !49
  br label %13

13:                                               ; preds = %._crit_edge, %12
  %14 = phi i32 [ %.pre, %._crit_edge ], [ 2, %12 ]
  %15 = getelementptr inbounds nuw i8, ptr %0, i64 4780
  %16 = getelementptr inbounds nuw i8, ptr %0, i64 4772
  %17 = load i32, ptr %16, align 4, !tbaa !146
  store i32 %17, ptr %15, align 4, !tbaa !147
  store i32 %14, ptr %16, align 4, !tbaa !146
  br label %.sink.split

.sink.split:                                      ; preds = %4, %13
  %.sink = phi i32 [ %17, %13 ], [ %6, %4 ]
  %18 = getelementptr inbounds nuw i8, ptr %0, i64 4776
  store i32 %.sink, ptr %18, align 8, !tbaa !148
  br label %19

19:                                               ; preds = %.sink.split, %1
  %20 = getelementptr inbounds nuw i8, ptr %0, i64 4664
  %21 = load i32, ptr %20, align 8, !tbaa !61
  switch i32 %21, label %30 [
    i32 0, label %22
    i32 1, label %._crit_edge22
  ]

._crit_edge22:                                    ; preds = %19
  %.phi.trans.insert23 = getelementptr inbounds nuw i8, ptr %0, i64 4768
  %.pre24 = load i32, ptr %.phi.trans.insert23, align 8, !tbaa !48
  br label %24

22:                                               ; preds = %19
  %23 = getelementptr inbounds nuw i8, ptr %0, i64 4768
  store i32 0, ptr %23, align 8, !tbaa !48
  br label %24

24:                                               ; preds = %._crit_edge22, %22
  %25 = phi i32 [ %.pre24, %._crit_edge22 ], [ 0, %22 ]
  %26 = getelementptr inbounds nuw i8, ptr %0, i64 4688
  store i32 0, ptr %26, align 8, !tbaa !49
  %27 = getelementptr inbounds nuw i8, ptr %0, i64 4772
  store i32 %25, ptr %27, align 4, !tbaa !146
  %28 = xor i32 %25, 1
  %29 = getelementptr inbounds nuw i8, ptr %0, i64 4776
  store i32 %28, ptr %29, align 8, !tbaa !148
  br label %30

30:                                               ; preds = %24, %19
  ret void
}